; Function Attrs: mustprogress nounwind uwtable
define hidden void @_ZN23ConcurrentGCBreakpoints21notify_active_to_idleEv() local_unnamed_addr #2 align 2 {
  %1 = load ptr, ptr @ConcurrentGCBreakpoints_lock, align 8
  %.not.i.i = icmp eq ptr %1, null
  br i1 %.not.i.i, label %_ZN13MonitorLockerC2EP7MonitorN5Mutex18SafepointCheckFlagE.exit, label %2

2:                                                ; preds = %0
  tail call void @_ZN5Mutex28lock_without_safepoint_checkEv(ptr noundef nonnull align 8 dereferenceable(104) %1) #7
  br label %_ZN13MonitorLockerC2EP7MonitorN5Mutex18SafepointCheckFlagE.exit

_ZN13MonitorLockerC2EP7MonitorN5Mutex18SafepointCheckFlagE.exit: ; preds = %0, %2
  %3 = load ptr, ptr @_ZN23ConcurrentGCBreakpoints7_run_toE, align 8
  %.not = icmp eq ptr %3, null
  br i1 %.not, label %8, label %4

4:                                                ; preds = %_ZN13MonitorLockerC2EP7MonitorN5Mutex18SafepointCheckFlagE.exit
  %5 = load volatile ptr, ptr getelementptr inbounds (i8, ptr @_ZN16LogTagSetMappingILN6LogTag4typeE49ELS1_11ELS1_0ELS1_0ELS1_0ELS1_0EE7_tagsetE, i64 56), align 8
  %.not2 = icmp eq ptr %5, null
  br i1 %.not2, label %7, label %6

6:                                                ; preds = %4
  tail call void (ptr, ...) @_ZN7LogImplILN6LogTag4typeE49ELS1_11ELS1_0ELS1_0ELS1_0ELS1_0EE5writeILN8LogLevel4typeE2EEEvPKcz(ptr noundef nonnull @.str.13, ptr noundef nonnull %3)
  br label %7

7:                                                ; preds = %4, %6
  store ptr null, ptr @_ZN23ConcurrentGCBreakpoints7_run_toE, align 8
  store i8 1, ptr @_ZN23ConcurrentGCBreakpoints10_want_idleE, align 1
  br label %8

8:                                                ; preds = %7, %_ZN13MonitorLockerC2EP7MonitorN5Mutex18SafepointCheckFlagE.exit
  store i8 1, ptr @_ZN23ConcurrentGCBreakpoints8_is_idleE, align 1
  %9 = load ptr, ptr @ConcurrentGCBreakpoints_lock, align 8
  tail call void @_ZN7Monitor10notify_allEv(ptr noundef nonnull align 8 dereferenceable(104) %9) #7
  br i1 %.not.i.i, label %_ZN13MonitorLockerD2Ev.exit, label %10

10:                                               ; preds = %8
  tail call void @_ZN5Mutex6unlockEv(ptr noundef nonnull align 8 dereferenceable(104) %1) #7
  br label %_ZN13MonitorLockerD2Ev.exit

_ZN13MonitorLockerD2Ev.exit:                      ; preds = %8, %10
  ret void
}